; Function Attrs: mustprogress nofree norecurse nosync nounwind willreturn memory(argmem: write) uwtable
define hidden void @_ZN6Assimp11FBXExporterC2EPK7aiScenePKNS_16ExportPropertiesE(ptr noundef nonnull align 8 dereferenceable(264) initializes((0, 1), (8, 88)) %0, ptr noundef %1, ptr noundef %2) unnamed_addr #5 align 2 personality ptr @__gxx_personality_v0 {
  store i8 0, ptr %0, align 8
  %4 = getelementptr inbounds nuw i8, ptr %0, i64 8
  store ptr %1, ptr %4, align 8
  %5 = getelementptr inbounds nuw i8, ptr %0, i64 16
  store ptr %2, ptr %5, align 8
  %6 = getelementptr inbounds nuw i8, ptr %0, i64 24
  %7 = getelementptr inbounds nuw i8, ptr %0, i64 72
  %8 = getelementptr inbounds nuw i8, ptr %0, i64 88
  tail call void @llvm.memset.p0.i64(ptr noundef nonnull align 8 dereferenceable(64) %6, i8 0, i64 64, i1 false)
  store ptr %7, ptr %8, align 8
  %9 = getelementptr inbounds nuw i8, ptr %0, i64 96
  store ptr %7, ptr %9, align 8
  %10 = getelementptr inbounds nuw i8, ptr %0, i64 104
  %11 = getelementptr inbounds nuw i8, ptr %0, i64 168
  %12 = getelementptr inbounds nuw i8, ptr %0, i64 184
  tail call void @llvm.memset.p0.i64(ptr noundef nonnull align 8 dereferenceable(80) %10, i8 0, i64 80, i1 false)
  store ptr %11, ptr %12, align 8
  %13 = getelementptr inbounds nuw i8, ptr %0, i64 192
  store ptr %11, ptr %13, align 8
  %14 = getelementptr inbounds nuw i8, ptr %0, i64 200
  store i64 0, ptr %14, align 8
  %15 = getelementptr inbounds nuw i8, ptr %0, i64 216
  store i32 0, ptr %15, align 8
  %16 = getelementptr inbounds nuw i8, ptr %0, i64 224
  store ptr null, ptr %16, align 8
  %17 = getelementptr inbounds nuw i8, ptr %0, i64 232
  store ptr %15, ptr %17, align 8
  %18 = getelementptr inbounds nuw i8, ptr %0, i64 240
  store ptr %15, ptr %18, align 8
  %19 = getelementptr inbounds nuw i8, ptr %0, i64 248
  store i64 0, ptr %19, align 8
  %20 = getelementptr inbounds nuw i8, ptr %0, i64 256
  store i64 999999, ptr %20, align 8
  ret void
}